target datalayout = "e-m:e-p270:32:32-p271:32:32-p272:64:64-i64:64-i128:128-f80:128-n8:16:32:64-S128"
target triple = "x86_64-unknown-linux-gnu"

%struct.stat = type { i64, i64, i64, i32, i32, i32, i32, i64, i64, i64, i64, %struct.timespec, %struct.timespec, %struct.timespec, [3 x i64] }
%struct.timespec = type { i64, i64 }
%struct.dirent = type { i64, i64, i16, i8, [256 x i8] }

@.str.7 = private unnamed_addr constant [18 x i8] c"/proc/device-tree\00", align 1
@.str.31 = private unnamed_addr constant [34 x i8] c"%s: %s must be searched within %s\00", align 1
@__func__.read_fstree = private unnamed_addr constant [12 x i8] c"read_fstree\00", align 1
@.str.32 = private unnamed_addr constant [18 x i8] c"%s cannot open %s\00", align 1
@.str.33 = private unnamed_addr constant [2 x i8] c".\00", align 1
@.str.34 = private unnamed_addr constant [3 x i8] c"..\00", align 1
@.str.35 = private unnamed_addr constant [6 x i8] c"%s/%s\00", align 1
@.str.36 = private unnamed_addr constant [19 x i8] c"%s cannot lstat %s\00", align 1
@.str.37 = private unnamed_addr constant [36 x i8] c"%s not able to extract info from %s\00", align 1
@.str.38 = private unnamed_addr constant [2 x i8] c"/\00", align 1

; Function Attrs: nounwind sspstrong uwtable
define internal void @read_fstree(ptr noundef %fdt, ptr noundef %dirname) #0 {
entry:
  %fdt.addr = alloca ptr, align 8
  %dirname.addr = alloca ptr, align 8
  %d = alloca ptr, align 8
  %de = alloca ptr, align 8
  %st = alloca %struct.stat, align 8
  %root_dir = alloca ptr, align 8
  %parent_node = alloca ptr, align 8
  %tmpnam = alloca ptr, align 8
  %val = alloca ptr, align 8
  %len = alloca i64, align 8
  %node_name = alloca ptr, align 8
  store ptr %fdt, ptr %fdt.addr, align 8
  store ptr %dirname, ptr %dirname.addr, align 8
  store ptr @.str.7, ptr %root_dir, align 8
  %0 = load ptr, ptr %dirname.addr, align 8
  %1 = load ptr, ptr %root_dir, align 8
  %call = call ptr @strstr(ptr noundef %0, ptr noundef %1) #11
  %2 = load ptr, ptr %dirname.addr, align 8
  %cmp = icmp ne ptr %call, %2
  br i1 %cmp, label %if.then, label %if.end

if.then:                                          ; preds = %entry
  %3 = load ptr, ptr %dirname.addr, align 8
  %4 = load ptr, ptr %root_dir, align 8
  call void (ptr, ...) @error_report(ptr noundef @.str.31, ptr noundef @__func__.read_fstree, ptr noundef %3, ptr noundef %4)
  call void @exit(i32 noundef 1) #10
  unreachable

if.end:                                           ; preds = %entry
  %5 = load ptr, ptr %dirname.addr, align 8
  %arrayidx = getelementptr i8, ptr %5, i64 17
  store ptr %arrayidx, ptr %parent_node, align 8
  %6 = load ptr, ptr %dirname.addr, align 8
  %call1 = call ptr @opendir(ptr noundef %6)
  store ptr %call1, ptr %d, align 8
  %7 = load ptr, ptr %d, align 8
  %tobool = icmp ne ptr %7, null
  br i1 %tobool, label %if.end3, label %if.then2

if.then2:                                         ; preds = %if.end
  %8 = load ptr, ptr %dirname.addr, align 8
  call void (ptr, ...) @error_report(ptr noundef @.str.32, ptr noundef @__func__.read_fstree, ptr noundef %8)
  call void @exit(i32 noundef 1) #10
  unreachable

if.end3:                                          ; preds = %if.end
  br label %while.cond

while.cond:                                       ; preds = %if.end49, %if.then12, %if.end3
  %9 = load ptr, ptr %d, align 8
  %call4 = call ptr @readdir64(ptr noundef %9)
  store ptr %call4, ptr %de, align 8
  %cmp5 = icmp ne ptr %call4, null
  br i1 %cmp5, label %while.body, label %while.end

while.body:                                       ; preds = %while.cond
  %10 = load ptr, ptr %de, align 8
  %d_name = getelementptr inbounds %struct.dirent, ptr %10, i32 0, i32 4
  %arraydecay = getelementptr inbounds [256 x i8], ptr %d_name, i64 0, i64 0
  %call6 = call i32 @g_strcmp0(ptr noundef %arraydecay, ptr noundef @.str.33)
  %tobool7 = icmp ne i32 %call6, 0
  br i1 %tobool7, label %lor.lhs.false, label %if.then12

lor.lhs.false:                                    ; preds = %while.body
  %11 = load ptr, ptr %de, align 8
  %d_name8 = getelementptr inbounds %struct.dirent, ptr %11, i32 0, i32 4
  %arraydecay9 = getelementptr inbounds [256 x i8], ptr %d_name8, i64 0, i64 0
  %call10 = call i32 @g_strcmp0(ptr noundef %arraydecay9, ptr noundef @.str.34)
  %tobool11 = icmp ne i32 %call10, 0
  br i1 %tobool11, label %if.end13, label %if.then12

if.then12:                                        ; preds = %lor.lhs.false, %while.body
  br label %while.cond, !llvm.loop !5

if.end13:                                         ; preds = %lor.lhs.false
  %12 = load ptr, ptr %dirname.addr, align 8
  %13 = load ptr, ptr %de, align 8
  %d_name14 = getelementptr inbounds %struct.dirent, ptr %13, i32 0, i32 4
  %arraydecay15 = getelementptr inbounds [256 x i8], ptr %d_name14, i64 0, i64 0
  %call16 = call noalias ptr (ptr, ...) @g_strdup_printf(ptr noundef @.str.35, ptr noundef %12, ptr noundef %arraydecay15)
  store ptr %call16, ptr %tmpnam, align 8
  %14 = load ptr, ptr %tmpnam, align 8
  %call17 = call i32 @lstat64(ptr noundef %14, ptr noundef %st) #12
  %cmp18 = icmp slt i32 %call17, 0
  br i1 %cmp18, label %if.then19, label %if.end20

if.then19:                                        ; preds = %if.end13
  %15 = load ptr, ptr %tmpnam, align 8
  call void (ptr, ...) @error_report(ptr noundef @.str.36, ptr noundef @__func__.read_fstree, ptr noundef %15)
  call void @exit(i32 noundef 1) #10
  unreachable

if.end20:                                         ; preds = %if.end13
  %st_mode = getelementptr inbounds %struct.stat, ptr %st, i32 0, i32 3
  %16 = load i32, ptr %st_mode, align 8
  %and = and i32 %16, 61440
  %cmp21 = icmp eq i32 %and, 32768
  br i1 %cmp21, label %if.then22, label %if.else38

if.then22:                                        ; preds = %if.end20
  %17 = load ptr, ptr %tmpnam, align 8
  %call23 = call i32 @g_file_get_contents(ptr noundef %17, ptr noundef %val, ptr noundef %len, ptr noundef null)
  %tobool24 = icmp ne i32 %call23, 0
  br i1 %tobool24, label %if.end26, label %if.then25

if.then25:                                        ; preds = %if.then22
  %18 = load ptr, ptr %tmpnam, align 8
  call void (ptr, ...) @error_report(ptr noundef @.str.37, ptr noundef @__func__.read_fstree, ptr noundef %18)
  call void @exit(i32 noundef 1) #10
  unreachable

if.end26:                                         ; preds = %if.then22
  %19 = load ptr, ptr %parent_node, align 8
  %call27 = call i64 @strlen(ptr noundef %19) #11
  %cmp28 = icmp ugt i64 %call27, 0
  br i1 %cmp28, label %if.then29, label %if.else

if.then29:                                        ; preds = %if.end26
  %20 = load ptr, ptr %fdt.addr, align 8
  %21 = load ptr, ptr %parent_node, align 8
  %22 = load ptr, ptr %de, align 8
  %d_name30 = getelementptr inbounds %struct.dirent, ptr %22, i32 0, i32 4
  %arraydecay31 = getelementptr inbounds [256 x i8], ptr %d_name30, i64 0, i64 0
  %23 = load ptr, ptr %val, align 8
  %24 = load i64, ptr %len, align 8
  %conv = trunc i64 %24 to i32
  %call32 = call i32 @qemu_fdt_setprop(ptr noundef %20, ptr noundef %21, ptr noundef %arraydecay31, ptr noundef %23, i32 noundef %conv)
  br label %if.end37

if.else:                                          ; preds = %if.end26
  %25 = load ptr, ptr %fdt.addr, align 8
  %26 = load ptr, ptr %de, align 8
  %d_name33 = getelementptr inbounds %struct.dirent, ptr %26, i32 0, i32 4
  %arraydecay34 = getelementptr inbounds [256 x i8], ptr %d_name33, i64 0, i64 0
  %27 = load ptr, ptr %val, align 8
  %28 = load i64, ptr %len, align 8
  %conv35 = trunc i64 %28 to i32
  %call36 = call i32 @qemu_fdt_setprop(ptr noundef %25, ptr noundef @.str.38, ptr noundef %arraydecay34, ptr noundef %27, i32 noundef %conv35)
  br label %if.end37

if.end37:                                         ; preds = %if.else, %if.then29
  %29 = load ptr, ptr %val, align 8
  call void @g_free(ptr noundef %29)
  br label %if.end49

if.else38:                                        ; preds = %if.end20
  %st_mode39 = getelementptr inbounds %struct.stat, ptr %st, i32 0, i32 3
  %30 = load i32, ptr %st_mode39, align 8
  %and40 = and i32 %30, 61440
  %cmp41 = icmp eq i32 %and40, 16384
  br i1 %cmp41, label %if.then43, label %if.end48

if.then43:                                        ; preds = %if.else38
  %31 = load ptr, ptr %parent_node, align 8
  %32 = load ptr, ptr %de, align 8
  %d_name44 = getelementptr inbounds %struct.dirent, ptr %32, i32 0, i32 4
  %arraydecay45 = getelementptr inbounds [256 x i8], ptr %d_name44, i64 0, i64 0
  %call46 = call noalias ptr (ptr, ...) @g_strdup_printf(ptr noundef @.str.35, ptr noundef %31, ptr noundef %arraydecay45)
  store ptr %call46, ptr %node_name, align 8
  %33 = load ptr, ptr %fdt.addr, align 8
  %34 = load ptr, ptr %node_name, align 8
  %call47 = call i32 @qemu_fdt_add_subnode(ptr noundef %33, ptr noundef %34)
  %35 = load ptr, ptr %node_name, align 8
  call void @g_free(ptr noundef %35)
  %36 = load ptr, ptr %fdt.addr, align 8
  %37 = load ptr, ptr %tmpnam, align 8
  call void @read_fstree(ptr noundef %36, ptr noundef %37)
  br label %if.end48

if.end48:                                         ; preds = %if.then43, %if.else38
  br label %if.end49

if.end49:                                         ; preds = %if.end48, %if.end37
  %38 = load ptr, ptr %tmpnam, align 8
  call void @g_free(ptr noundef %38)
  br label %while.cond, !llvm.loop !5

while.end:                                        ; preds = %while.cond
  %39 = load ptr, ptr %d, align 8
  %call50 = call i32 @closedir(ptr noundef %39)
  ret void
}