; Function Attrs: nounwind sspstrong uwtable
define internal fastcc void @read_fstree(ptr noundef %fdt, ptr noundef %dirname) unnamed_addr #0 {
entry:
  %st = alloca %struct.stat, align 8
  %val = alloca ptr, align 8
  %len = alloca i64, align 8
  %strncmp = tail call i32 @strncmp(ptr noundef nonnull dereferenceable(1) %dirname, ptr noundef nonnull dereferenceable(18) @.str.7, i64 17)
  %cmp26.not = icmp eq i32 %strncmp, 0
  br i1 %cmp26.not, label %if.end, label %if.then

if.then:                                          ; preds = %entry
  tail call void (ptr, ...) @error_report(ptr noundef nonnull @.str.31, ptr noundef nonnull @__func__.read_fstree, ptr noundef nonnull %dirname, ptr noundef nonnull @.str.7) #12
  tail call void @exit(i32 noundef 1) #13
  unreachable

if.end:                                           ; preds = %entry
  %arrayidx = getelementptr i8, ptr %dirname, i64 17
  %call1 = tail call ptr @opendir(ptr noundef nonnull %dirname)
  %tobool.not = icmp eq ptr %call1, null
  br i1 %tobool.not, label %if.then2, label %while.cond.preheader

while.cond.preheader:                             ; preds = %if.end
  %call428 = tail call ptr @readdir64(ptr noundef nonnull %call1) #12
  %cmp5.not29 = icmp eq ptr %call428, null
  br i1 %cmp5.not29, label %while.end, label %while.body.lr.ph

while.body.lr.ph:                                 ; preds = %while.cond.preheader
  %st_mode = getelementptr inbounds nuw i8, ptr %st, i64 24
  br label %while.body

if.then2:                                         ; preds = %if.end
  tail call void (ptr, ...) @error_report(ptr noundef nonnull @.str.32, ptr noundef nonnull @__func__.read_fstree, ptr noundef nonnull %dirname) #12
  tail call void @exit(i32 noundef 1) #13
  unreachable

while.body:                                       ; preds = %while.body.lr.ph, %while.cond.backedge
  %call430 = phi ptr [ %call428, %while.body.lr.ph ], [ %call4, %while.cond.backedge ]
  %d_name = getelementptr inbounds nuw i8, ptr %call430, i64 19
  %call6 = call i32 @g_strcmp0(ptr noundef nonnull %d_name, ptr noundef nonnull @.str.33) #12
  %tobool7.not = icmp eq i32 %call6, 0
  br i1 %tobool7.not, label %while.cond.backedge, label %lor.lhs.false

lor.lhs.false:                                    ; preds = %while.body
  %call10 = call i32 @g_strcmp0(ptr noundef nonnull %d_name, ptr noundef nonnull @.str.34) #12
  %tobool11.not = icmp eq i32 %call10, 0
  br i1 %tobool11.not, label %while.cond.backedge, label %if.end13

while.cond.backedge:                              ; preds = %while.body, %lor.lhs.false, %if.end49
  %call4 = call ptr @readdir64(ptr noundef nonnull %call1) #12
  %cmp5.not = icmp eq ptr %call4, null
  br i1 %cmp5.not, label %while.end, label %while.body, !llvm.loop !5

if.end13:                                         ; preds = %lor.lhs.false
  %call16 = call noalias ptr (ptr, ...) @g_strdup_printf(ptr noundef nonnull @.str.35, ptr noundef nonnull %dirname, ptr noundef nonnull %d_name) #12
  %call17 = call i32 @lstat64(ptr noundef %call16, ptr noundef nonnull %st) #12
  %cmp18 = icmp slt i32 %call17, 0
  br i1 %cmp18, label %if.then19, label %if.end20

if.then19:                                        ; preds = %if.end13
  call void (ptr, ...) @error_report(ptr noundef nonnull @.str.36, ptr noundef nonnull @__func__.read_fstree, ptr noundef %call16) #12
  call void @exit(i32 noundef 1) #13
  unreachable

if.end20:                                         ; preds = %if.end13
  %0 = load i32, ptr %st_mode, align 8
  %1 = trunc i32 %0 to i16
  %trunc = and i16 %1, -4096
  switch i16 %trunc, label %if.end49 [
    i16 -32768, label %if.then22
    i16 16384, label %if.then43
  ]

if.then22:                                        ; preds = %if.end20
  %call23 = call i32 @g_file_get_contents(ptr noundef %call16, ptr noundef nonnull %val, ptr noundef nonnull %len, ptr noundef null) #12
  %tobool24.not = icmp eq i32 %call23, 0
  br i1 %tobool24.not, label %if.then25, label %if.end26

if.then25:                                        ; preds = %if.then22
  call void (ptr, ...) @error_report(ptr noundef nonnull @.str.37, ptr noundef nonnull @__func__.read_fstree, ptr noundef %call16) #12
  call void @exit(i32 noundef 1) #13
  unreachable

if.end26:                                         ; preds = %if.then22
  %char0 = load i8, ptr %arrayidx, align 1
  %cmp28.not = icmp eq i8 %char0, 0
  %2 = load ptr, ptr %val, align 8
  %3 = load i64, ptr %len, align 8
  %conv35 = trunc i64 %3 to i32
  %.str.38.arrayidx = select i1 %cmp28.not, ptr @.str.38, ptr %arrayidx
  %call36 = call i32 @qemu_fdt_setprop(ptr noundef %fdt, ptr noundef nonnull %.str.38.arrayidx, ptr noundef nonnull %d_name, ptr noundef %2, i32 noundef %conv35)
  %4 = load ptr, ptr %val, align 8
  call void @g_free(ptr noundef %4) #12
  br label %if.end49

if.then43:                                        ; preds = %if.end20
  %call46 = call noalias ptr (ptr, ...) @g_strdup_printf(ptr noundef nonnull @.str.35, ptr noundef %arrayidx, ptr noundef nonnull %d_name) #12
  %call47 = call i32 @qemu_fdt_add_subnode(ptr noundef %fdt, ptr noundef %call46)
  call void @g_free(ptr noundef %call46) #12
  call fastcc void @read_fstree(ptr noundef %fdt, ptr noundef %call16)
  br label %if.end49

if.end49:                                         ; preds = %if.end20, %if.then43, %if.end26
  call void @g_free(ptr noundef %call16) #12
  br label %while.cond.backedge

while.end:                                        ; preds = %while.cond.backedge, %while.cond.preheader
  %call50 = call i32 @closedir(ptr noundef nonnull %call1)
  ret void
}